target datalayout = "e-m:e-p270:32:32-p271:32:32-p272:64:64-i64:64-i128:128-f80:128-n8:16:32:64-S128"
target triple = "x86_64-pc-linux-gnu"

%struct.ossl_param_st = type { ptr, i32, ptr, i64, i64 }

@testctx = internal global ptr null, align 8
@.str.18 = private unnamed_addr constant [33 x i8] c"../openssl/test/evp_extra_test.c\00", align 1
@lgcyprov = internal global ptr null, align 8
@testpropq = internal global ptr null, align 8
@.str.197 = private unnamed_addr constant [27 x i8] c"ctx = EVP_CIPHER_CTX_new()\00", align 1
@.str.561 = private unnamed_addr constant [43 x i8] c"Test requires legacy provider to be loaded\00", align 1
@gcmDefaultPlaintext = internal constant [16 x i8] zeroinitializer, align 16
@.str.697 = private unnamed_addr constant [89 x i8] c"EVP_CipherUpdate(ctx, outbuf, &outlen, gcmDefaultPlaintext, sizeof(gcmDefaultPlaintext))\00", align 1
@.str.698 = private unnamed_addr constant [39 x i8] c"EVP_CIPHER_CTX_set_params(ctx, params)\00", align 1
@test_keylen_change.key = internal constant [16 x i8] c"Wq}\AD\DB\9B\98\82ZU\91\81B\A8\894", align 16
@.str.702 = private unnamed_addr constant [72 x i8] c"ciph = EVP_CIPHER_fetch(testctx, keylen_change_ciphers[idx], testpropq)\00", align 1
@keylen_change_ciphers = internal global [5 x ptr] [ptr @.str.705, ptr @.str.706, ptr @.str.707, ptr @.str.708, ptr null], align 16
@.str.703 = private unnamed_addr constant [49 x i8] c"EVP_CipherInit_ex(ctx, ciph, NULL, key, NULL, 1)\00", align 1
@.str.704 = private unnamed_addr constant [7 x i8] c"keylen\00", align 1

; Function Attrs: nounwind uwtable
define internal i32 @test_keylen_change(i32 noundef %0) #0 {
  %2 = alloca i32, align 4
  %3 = alloca i32, align 4
  %4 = alloca i32, align 4
  %5 = alloca i32, align 4
  %6 = alloca [1024 x i8], align 16
  %7 = alloca ptr, align 8
  %8 = alloca ptr, align 8
  %9 = alloca [2 x %struct.ossl_param_st], align 16
  %10 = alloca i64, align 8
  %11 = alloca i32, align 4
  %12 = alloca %struct.ossl_param_st, align 8
  store i32 %0, ptr %3, align 4, !tbaa !9
  call void @llvm.lifetime.start.p0(i64 4, ptr %4) #8
  call void @llvm.lifetime.start.p0(i64 4, ptr %5) #8
  store i32 0, ptr %5, align 4, !tbaa !9
  call void @llvm.lifetime.start.p0(i64 1024, ptr %6) #8
  call void @llvm.lifetime.start.p0(i64 8, ptr %7) #8
  store ptr null, ptr %7, align 8, !tbaa !39
  call void @llvm.lifetime.start.p0(i64 8, ptr %8) #8
  store ptr null, ptr %8, align 8, !tbaa !41
  call void @llvm.lifetime.start.p0(i64 80, ptr %9) #8
  call void @llvm.memset.p0.i64(ptr align 16 %9, i8 0, i64 80, i1 false)
  call void @llvm.lifetime.start.p0(i64 8, ptr %10) #8
  store i64 12, ptr %10, align 8, !tbaa !23
  %13 = load ptr, ptr @lgcyprov, align 8, !tbaa !13
  %14 = icmp eq ptr %13, null
  br i1 %14, label %15, label %17

15:                                               ; preds = %1
  %16 = call i32 (ptr, i32, ptr, ...) @test_skip(ptr noundef @.str.18, i32 noundef 5248, ptr noundef @.str.561)
  store i32 %16, ptr %2, align 4
  store i32 1, ptr %11, align 4
  br label %78

17:                                               ; preds = %1
  %18 = call ptr @EVP_CIPHER_CTX_new()
  store ptr %18, ptr %7, align 8, !tbaa !39
  %19 = call i32 @test_ptr(ptr noundef @.str.18, i32 noundef 5250, ptr noundef @.str.197, ptr noundef %18)
  %20 = icmp ne i32 %19, 0
  br i1 %20, label %22, label %21

21:                                               ; preds = %17
  br label %74

22:                                               ; preds = %17
  %23 = load ptr, ptr @testctx, align 8, !tbaa !11
  %24 = load i32, ptr %3, align 4, !tbaa !9
  %25 = sext i32 %24 to i64
  %26 = getelementptr inbounds [5 x ptr], ptr @keylen_change_ciphers, i64 0, i64 %25
  %27 = load ptr, ptr %26, align 8, !tbaa !4
  %28 = load ptr, ptr @testpropq, align 8, !tbaa !4
  %29 = call ptr @EVP_CIPHER_fetch(ptr noundef %23, ptr noundef %27, ptr noundef %28)
  store ptr %29, ptr %8, align 8, !tbaa !41
  %30 = call i32 @test_ptr(ptr noundef @.str.18, i32 noundef 5254, ptr noundef @.str.702, ptr noundef %29)
  %31 = icmp ne i32 %30, 0
  br i1 %31, label %33, label %32

32:                                               ; preds = %22
  br label %74

33:                                               ; preds = %22
  %34 = load ptr, ptr %7, align 8, !tbaa !39
  %35 = load ptr, ptr %8, align 8, !tbaa !41
  %36 = call i32 @EVP_CipherInit_ex(ptr noundef %34, ptr noundef %35, ptr noundef null, ptr noundef @test_keylen_change.key, ptr noundef null, i32 noundef 1)
  %37 = icmp ne i32 %36, 0
  %38 = zext i1 %37 to i32
  %39 = call i32 @test_true(ptr noundef @.str.18, i32 noundef 5257, ptr noundef @.str.703, i32 noundef %38)
  %40 = icmp ne i32 %39, 0
  br i1 %40, label %42, label %41

41:                                               ; preds = %33
  br label %74

42:                                               ; preds = %33
  %43 = load ptr, ptr %7, align 8, !tbaa !39
  %44 = getelementptr inbounds [1024 x i8], ptr %6, i64 0, i64 0
  %45 = call i32 @EVP_CipherUpdate(ptr noundef %43, ptr noundef %44, ptr noundef %4, ptr noundef @gcmDefaultPlaintext, i32 noundef 16)
  %46 = icmp ne i32 %45, 0
  %47 = zext i1 %46 to i32
  %48 = call i32 @test_true(ptr noundef @.str.18, i32 noundef 5261, ptr noundef @.str.697, i32 noundef %47)
  %49 = icmp ne i32 %48, 0
  br i1 %49, label %51, label %50

50:                                               ; preds = %42
  br label %74

51:                                               ; preds = %42
  %52 = getelementptr inbounds [2 x %struct.ossl_param_st], ptr %9, i64 0, i64 0
  call void @llvm.lifetime.start.p0(i64 40, ptr %12) #8
  call void @OSSL_PARAM_construct_size_t(ptr dead_on_unwind writable sret(%struct.ossl_param_st) align 8 %12, ptr noundef @.str.704, ptr noundef %10)
  call void @llvm.memcpy.p0.p0.i64(ptr align 16 %52, ptr align 8 %12, i64 40, i1 false), !tbaa.struct !53
  call void @llvm.lifetime.end.p0(i64 40, ptr %12) #8
  %53 = load ptr, ptr %7, align 8, !tbaa !39
  %54 = getelementptr inbounds [2 x %struct.ossl_param_st], ptr %9, i64 0, i64 0
  %55 = call i32 @EVP_CIPHER_CTX_set_params(ptr noundef %53, ptr noundef %54)
  %56 = icmp ne i32 %55, 0
  %57 = zext i1 %56 to i32
  %58 = call i32 @test_true(ptr noundef @.str.18, i32 noundef 5266, ptr noundef @.str.698, i32 noundef %57)
  %59 = icmp ne i32 %58, 0
  br i1 %59, label %61, label %60

60:                                               ; preds = %51
  br label %74

61:                                               ; preds = %51
  %62 = call i32 @ERR_set_mark()
  %63 = load ptr, ptr %7, align 8, !tbaa !39
  %64 = getelementptr inbounds [1024 x i8], ptr %6, i64 0, i64 0
  %65 = call i32 @EVP_CipherUpdate(ptr noundef %63, ptr noundef %64, ptr noundef %4, ptr noundef @gcmDefaultPlaintext, i32 noundef 16)
  %66 = icmp ne i32 %65, 0
  %67 = zext i1 %66 to i32
  %68 = call i32 @test_false(ptr noundef @.str.18, i32 noundef 5271, ptr noundef @.str.697, i32 noundef %67)
  %69 = icmp ne i32 %68, 0
  br i1 %69, label %72, label %70

70:                                               ; preds = %61
  %71 = call i32 @ERR_clear_last_mark()
  br label %74

72:                                               ; preds = %61
  %73 = call i32 @ERR_pop_to_mark()
  store i32 1, ptr %5, align 4, !tbaa !9
  br label %74

74:                                               ; preds = %72, %70, %60, %50, %41, %32, %21
  %75 = load ptr, ptr %7, align 8, !tbaa !39
  call void @EVP_CIPHER_CTX_free(ptr noundef %75)
  %76 = load ptr, ptr %8, align 8, !tbaa !41
  call void @EVP_CIPHER_free(ptr noundef %76)
  %77 = load i32, ptr %5, align 4, !tbaa !9
  store i32 %77, ptr %2, align 4
  store i32 1, ptr %11, align 4
  br label %78

78:                                               ; preds = %74, %15
  call void @llvm.lifetime.end.p0(i64 8, ptr %10) #8
  call void @llvm.lifetime.end.p0(i64 80, ptr %9) #8
  call void @llvm.lifetime.end.p0(i64 8, ptr %8) #8
  call void @llvm.lifetime.end.p0(i64 8, ptr %7) #8
  call void @llvm.lifetime.end.p0(i64 1024, ptr %6) #8
  call void @llvm.lifetime.end.p0(i64 4, ptr %5) #8
  call void @llvm.lifetime.end.p0(i64 4, ptr %4) #8
  %79 = load i32, ptr %2, align 4
  ret i32 %79
}