; Function Attrs: nounwind uwtable
define internal i32 @test_keylen_change(i32 noundef %0) #1 {
  %2 = alloca i32, align 4
  %3 = alloca [1024 x i8], align 16
  %4 = alloca [2 x %struct.ossl_param_st], align 16
  %5 = alloca i64, align 8
  call void @llvm.lifetime.start.p0(i64 4, ptr nonnull %2) #9
  call void @llvm.lifetime.start.p0(i64 1024, ptr nonnull %3) #9
  call void @llvm.lifetime.start.p0(i64 80, ptr nonnull %4) #9
  call void @llvm.memset.p0.i64(ptr noundef nonnull align 16 dereferenceable(80) %4, i8 0, i64 80, i1 false)
  call void @llvm.lifetime.start.p0(i64 8, ptr nonnull %5) #9
  store i64 12, ptr %5, align 8, !tbaa !15
  %6 = load ptr, ptr @lgcyprov, align 8, !tbaa !11
  %7 = icmp eq ptr %6, null
  br i1 %7, label %8, label %10

8:                                                ; preds = %1
  %9 = tail call i32 (ptr, i32, ptr, ...) @test_skip(ptr noundef nonnull @.str.18, i32 noundef 5248, ptr noundef nonnull @.str.561) #9
  br label %46

10:                                               ; preds = %1
  %11 = tail call ptr @EVP_CIPHER_CTX_new() #9
  %12 = tail call i32 @test_ptr(ptr noundef nonnull @.str.18, i32 noundef 5250, ptr noundef nonnull @.str.197, ptr noundef %11) #9
  %.not = icmp eq i32 %12, 0
  br i1 %.not, label %45, label %13

13:                                               ; preds = %10
  %14 = load ptr, ptr @testctx, align 8, !tbaa !6
  %15 = sext i32 %0 to i64
  %16 = getelementptr inbounds [5 x ptr], ptr @keylen_change_ciphers, i64 0, i64 %15
  %17 = load ptr, ptr %16, align 8, !tbaa !19
  %18 = tail call ptr @EVP_CIPHER_fetch(ptr noundef %14, ptr noundef %17, ptr noundef null) #9
  %19 = tail call i32 @test_ptr(ptr noundef nonnull @.str.18, i32 noundef 5254, ptr noundef nonnull @.str.702, ptr noundef %18) #9
  %.not11 = icmp eq i32 %19, 0
  br i1 %.not11, label %45, label %20

20:                                               ; preds = %13
  %21 = tail call i32 @EVP_CipherInit_ex(ptr noundef %11, ptr noundef %18, ptr noundef null, ptr noundef nonnull @test_keylen_change.key, ptr noundef null, i32 noundef 1) #9
  %22 = icmp ne i32 %21, 0
  %23 = zext i1 %22 to i32
  %24 = tail call i32 @test_true(ptr noundef nonnull @.str.18, i32 noundef 5257, ptr noundef nonnull @.str.703, i32 noundef %23) #9
  %.not12 = icmp eq i32 %24, 0
  br i1 %.not12, label %45, label %25

25:                                               ; preds = %20
  %26 = call i32 @EVP_CipherUpdate(ptr noundef %11, ptr noundef nonnull %3, ptr noundef nonnull %2, ptr noundef nonnull @gcmDefaultPlaintext, i32 noundef 16) #9
  %27 = icmp ne i32 %26, 0
  %28 = zext i1 %27 to i32
  %29 = call i32 @test_true(ptr noundef nonnull @.str.18, i32 noundef 5261, ptr noundef nonnull @.str.697, i32 noundef %28) #9
  %.not13 = icmp eq i32 %29, 0
  br i1 %.not13, label %45, label %30

30:                                               ; preds = %25
  call void @OSSL_PARAM_construct_size_t(ptr dead_on_unwind nonnull writable sret(%struct.ossl_param_st) align 8 %4, ptr noundef nonnull @.str.704, ptr noundef nonnull %5) #9
  %31 = call i32 @EVP_CIPHER_CTX_set_params(ptr noundef %11, ptr noundef nonnull %4) #9
  %32 = icmp ne i32 %31, 0
  %33 = zext i1 %32 to i32
  %34 = call i32 @test_true(ptr noundef nonnull @.str.18, i32 noundef 5266, ptr noundef nonnull @.str.698, i32 noundef %33) #9
  %.not14 = icmp eq i32 %34, 0
  br i1 %.not14, label %45, label %35

35:                                               ; preds = %30
  %36 = call i32 @ERR_set_mark() #9
  %37 = call i32 @EVP_CipherUpdate(ptr noundef %11, ptr noundef nonnull %3, ptr noundef nonnull %2, ptr noundef nonnull @gcmDefaultPlaintext, i32 noundef 16) #9
  %38 = icmp ne i32 %37, 0
  %39 = zext i1 %38 to i32
  %40 = call i32 @test_false(ptr noundef nonnull @.str.18, i32 noundef 5271, ptr noundef nonnull @.str.697, i32 noundef %39) #9
  %.not15 = icmp eq i32 %40, 0
  br i1 %.not15, label %41, label %43

41:                                               ; preds = %35
  %42 = call i32 @ERR_clear_last_mark() #9
  br label %45

43:                                               ; preds = %35
  %44 = call i32 @ERR_pop_to_mark() #9
  br label %45

45:                                               ; preds = %30, %25, %20, %13, %10, %43, %41
  %.09 = phi i32 [ 1, %43 ], [ 0, %41 ], [ 0, %30 ], [ 0, %25 ], [ 0, %20 ], [ 0, %13 ], [ 0, %10 ]
  %.0 = phi ptr [ %18, %43 ], [ %18, %41 ], [ %18, %30 ], [ %18, %25 ], [ %18, %20 ], [ %18, %13 ], [ null, %10 ]
  call void @EVP_CIPHER_CTX_free(ptr noundef %11) #9
  call void @EVP_CIPHER_free(ptr noundef %.0) #9
  br label %46

46:                                               ; preds = %45, %8
  %.010 = phi i32 [ %9, %8 ], [ %.09, %45 ]
  call void @llvm.lifetime.end.p0(i64 8, ptr nonnull %5) #9
  call void @llvm.lifetime.end.p0(i64 80, ptr nonnull %4) #9
  call void @llvm.lifetime.end.p0(i64 1024, ptr nonnull %3) #9
  call void @llvm.lifetime.end.p0(i64 4, ptr nonnull %2) #9
  ret i32 %.010
}